target datalayout = "e-m:e-p270:32:32-p271:32:32-p272:64:64-i64:64-i128:128-f80:128-n8:16:32:64-S128"
target triple = "x86_64-pc-linux-gnu"

%struct.ForEachState = type { ptr, i32 }
%struct.List = type { i32, i32, i32, ptr, [0 x %union.ListCell] }
%union.ListCell = type { ptr }
%struct.CommonTableExpr = type { i32, ptr, ptr, i32, ptr, ptr, ptr, i32, i8, i32, ptr, ptr, ptr, ptr }
%struct.TargetEntry = type { %struct.Expr, ptr, i16, ptr, i32, i32, i16, i8 }
%struct.Expr = type { i32 }

@.str.1 = private unnamed_addr constant [12 x i8] c"parse_cte.c\00", align 1
@.str.2 = private unnamed_addr constant [66 x i8] c"WITH query \22%s\22 has %d columns available but %d columns specified\00", align 1
@__func__.analyzeCTETargetList = private unnamed_addr constant [21 x i8] c"analyzeCTETargetList\00", align 1

; Function Attrs: inlinehint nounwind uwtable
define internal i32 @list_length(ptr noundef %0) #3 {
  %2 = alloca ptr, align 8
  store ptr %0, ptr %2, align 8
  %3 = load ptr, ptr %2, align 8
  %4 = icmp ne ptr %3, null
  br i1 %4, label %5, label %9

5:                                                ; preds = %1
  %6 = load ptr, ptr %2, align 8
  %7 = getelementptr inbounds nuw %struct.List, ptr %6, i32 0, i32 1
  %8 = load i32, ptr %7, align 4
  br label %10

9:                                                ; preds = %1
  br label %10

10:                                               ; preds = %9, %5
  %11 = phi i32 [ %8, %5 ], [ 0, %9 ]
  ret i32 %11
}

; Function Attrs: nounwind uwtable
define dso_local void @analyzeCTETargetList(ptr noundef %0, ptr noundef %1, ptr noundef %2) #0 {
  %4 = alloca ptr, align 8
  %5 = alloca ptr, align 8
  %6 = alloca ptr, align 8
  %7 = alloca i32, align 4
  %8 = alloca i32, align 4
  %9 = alloca ptr, align 8
  %10 = alloca %struct.ForEachState, align 8
  %11 = alloca i32, align 4
  %12 = alloca ptr, align 8
  %13 = alloca i32, align 4
  %14 = alloca i32, align 4
  %15 = alloca i32, align 4
  %16 = alloca ptr, align 8
  store ptr %0, ptr %4, align 8
  store ptr %1, ptr %5, align 8
  store ptr %2, ptr %6, align 8
  call void @llvm.lifetime.start.p0(i64 4, ptr %7) #8
  call void @llvm.lifetime.start.p0(i64 4, ptr %8) #8
  call void @llvm.lifetime.start.p0(i64 8, ptr %9) #8
  %17 = load ptr, ptr %5, align 8
  %18 = getelementptr inbounds nuw %struct.CommonTableExpr, ptr %17, i32 0, i32 2
  %19 = load ptr, ptr %18, align 8
  %20 = call ptr @copyObjectImpl(ptr noundef %19)
  %21 = load ptr, ptr %5, align 8
  %22 = getelementptr inbounds nuw %struct.CommonTableExpr, ptr %21, i32 0, i32 10
  store ptr %20, ptr %22, align 8
  %23 = load ptr, ptr %5, align 8
  %24 = getelementptr inbounds nuw %struct.CommonTableExpr, ptr %23, i32 0, i32 13
  store ptr null, ptr %24, align 8
  %25 = load ptr, ptr %5, align 8
  %26 = getelementptr inbounds nuw %struct.CommonTableExpr, ptr %25, i32 0, i32 12
  store ptr null, ptr %26, align 8
  %27 = load ptr, ptr %5, align 8
  %28 = getelementptr inbounds nuw %struct.CommonTableExpr, ptr %27, i32 0, i32 11
  store ptr null, ptr %28, align 8
  %29 = load ptr, ptr %5, align 8
  %30 = getelementptr inbounds nuw %struct.CommonTableExpr, ptr %29, i32 0, i32 2
  %31 = load ptr, ptr %30, align 8
  %32 = call i32 @list_length(ptr noundef %31)
  store i32 %32, ptr %7, align 4
  store i32 0, ptr %8, align 4
  call void @llvm.lifetime.start.p0(i64 16, ptr %10) #8
  %33 = getelementptr inbounds nuw %struct.ForEachState, ptr %10, i32 0, i32 0
  %34 = load ptr, ptr %6, align 8
  store ptr %34, ptr %33, align 8
  %35 = getelementptr inbounds nuw %struct.ForEachState, ptr %10, i32 0, i32 1
  store i32 0, ptr %35, align 8
  %36 = getelementptr i8, ptr %10, i64 12
  call void @llvm.memset.p0.i64(ptr align 4 %36, i8 0, i64 4, i1 false)
  br label %37

37:                                               ; preds = %140, %3
  %38 = getelementptr inbounds nuw %struct.ForEachState, ptr %10, i32 0, i32 0
  %39 = load ptr, ptr %38, align 8
  %40 = icmp ne ptr %39, null
  br i1 %40, label %41, label %58

41:                                               ; preds = %37
  %42 = getelementptr inbounds nuw %struct.ForEachState, ptr %10, i32 0, i32 1
  %43 = load i32, ptr %42, align 8
  %44 = getelementptr inbounds nuw %struct.ForEachState, ptr %10, i32 0, i32 0
  %45 = load ptr, ptr %44, align 8
  %46 = getelementptr inbounds nuw %struct.List, ptr %45, i32 0, i32 1
  %47 = load i32, ptr %46, align 4
  %48 = icmp slt i32 %43, %47
  br i1 %48, label %49, label %58

49:                                               ; preds = %41
  %50 = getelementptr inbounds nuw %struct.ForEachState, ptr %10, i32 0, i32 0
  %51 = load ptr, ptr %50, align 8
  %52 = getelementptr inbounds nuw %struct.List, ptr %51, i32 0, i32 3
  %53 = load ptr, ptr %52, align 8
  %54 = getelementptr inbounds nuw %struct.ForEachState, ptr %10, i32 0, i32 1
  %55 = load i32, ptr %54, align 8
  %56 = sext i32 %55 to i64
  %57 = getelementptr inbounds %union.ListCell, ptr %53, i64 %56
  store ptr %57, ptr %9, align 8
  br label %59

58:                                               ; preds = %41, %37
  store ptr null, ptr %9, align 8
  br label %59

59:                                               ; preds = %58, %49
  %60 = phi i32 [ 1, %49 ], [ 0, %58 ]
  %61 = icmp ne i32 %60, 0
  br i1 %61, label %63, label %62

62:                                               ; preds = %59
  store i32 2, ptr %11, align 4
  call void @llvm.lifetime.end.p0(i64 16, ptr %10) #8
  br label %144

63:                                               ; preds = %59
  call void @llvm.lifetime.start.p0(i64 8, ptr %12) #8
  %64 = load ptr, ptr %9, align 8
  %65 = load ptr, ptr %64, align 8
  store ptr %65, ptr %12, align 8
  call void @llvm.lifetime.start.p0(i64 4, ptr %13) #8
  call void @llvm.lifetime.start.p0(i64 4, ptr %14) #8
  call void @llvm.lifetime.start.p0(i64 4, ptr %15) #8
  %66 = load ptr, ptr %12, align 8
  %67 = getelementptr inbounds nuw %struct.TargetEntry, ptr %66, i32 0, i32 7
  %68 = load i8, ptr %67, align 2, !range !7, !noundef !8
  %69 = trunc i8 %68 to i1
  br i1 %69, label %70, label %71

70:                                               ; preds = %63
  store i32 4, ptr %11, align 4
  br label %137

71:                                               ; preds = %63
  %72 = load i32, ptr %8, align 4
  %73 = add i32 %72, 1
  store i32 %73, ptr %8, align 4
  %74 = load i32, ptr %8, align 4
  %75 = load i32, ptr %7, align 4
  %76 = icmp sgt i32 %74, %75
  br i1 %76, label %77, label %90

77:                                               ; preds = %71
  call void @llvm.lifetime.start.p0(i64 8, ptr %16) #8
  %78 = load ptr, ptr %12, align 8
  %79 = getelementptr inbounds nuw %struct.TargetEntry, ptr %78, i32 0, i32 3
  %80 = load ptr, ptr %79, align 8
  %81 = call ptr @pstrdup(ptr noundef %80)
  store ptr %81, ptr %16, align 8
  %82 = load ptr, ptr %5, align 8
  %83 = getelementptr inbounds nuw %struct.CommonTableExpr, ptr %82, i32 0, i32 10
  %84 = load ptr, ptr %83, align 8
  %85 = load ptr, ptr %16, align 8
  %86 = call ptr @makeString(ptr noundef %85)
  %87 = call ptr @lappend(ptr noundef %84, ptr noundef %86)
  %88 = load ptr, ptr %5, align 8
  %89 = getelementptr inbounds nuw %struct.CommonTableExpr, ptr %88, i32 0, i32 10
  store ptr %87, ptr %89, align 8
  call void @llvm.lifetime.end.p0(i64 8, ptr %16) #8
  br label %90

90:                                               ; preds = %77, %71
  %91 = load ptr, ptr %12, align 8
  %92 = getelementptr inbounds nuw %struct.TargetEntry, ptr %91, i32 0, i32 1
  %93 = load ptr, ptr %92, align 8
  %94 = call i32 @exprType(ptr noundef %93)
  store i32 %94, ptr %13, align 4
  %95 = load ptr, ptr %12, align 8
  %96 = getelementptr inbounds nuw %struct.TargetEntry, ptr %95, i32 0, i32 1
  %97 = load ptr, ptr %96, align 8
  %98 = call i32 @exprTypmod(ptr noundef %97)
  store i32 %98, ptr %14, align 4
  %99 = load ptr, ptr %12, align 8
  %100 = getelementptr inbounds nuw %struct.TargetEntry, ptr %99, i32 0, i32 1
  %101 = load ptr, ptr %100, align 8
  %102 = call i32 @exprCollation(ptr noundef %101)
  store i32 %102, ptr %15, align 4
  %103 = load ptr, ptr %5, align 8
  %104 = getelementptr inbounds nuw %struct.CommonTableExpr, ptr %103, i32 0, i32 8
  %105 = load i8, ptr %104, align 4, !range !7, !noundef !8
  %106 = trunc i8 %105 to i1
  br i1 %106, label %107, label %115

107:                                              ; preds = %90
  %108 = load i32, ptr %13, align 4
  %109 = icmp eq i32 %108, 705
  br i1 %109, label %110, label %115

110:                                              ; preds = %107
  store i32 25, ptr %13, align 4
  store i32 -1, ptr %14, align 4
  %111 = load i32, ptr %15, align 4
  %112 = icmp ne i32 %111, 0
  br i1 %112, label %114, label %113

113:                                              ; preds = %110
  store i32 100, ptr %15, align 4
  br label %114

114:                                              ; preds = %113, %110
  br label %115

115:                                              ; preds = %114, %107, %90
  %116 = load ptr, ptr %5, align 8
  %117 = getelementptr inbounds nuw %struct.CommonTableExpr, ptr %116, i32 0, i32 11
  %118 = load ptr, ptr %117, align 8
  %119 = load i32, ptr %13, align 4
  %120 = call ptr @lappend_oid(ptr noundef %118, i32 noundef %119)
  %121 = load ptr, ptr %5, align 8
  %122 = getelementptr inbounds nuw %struct.CommonTableExpr, ptr %121, i32 0, i32 11
  store ptr %120, ptr %122, align 8
  %123 = load ptr, ptr %5, align 8
  %124 = getelementptr inbounds nuw %struct.CommonTableExpr, ptr %123, i32 0, i32 12
  %125 = load ptr, ptr %124, align 8
  %126 = load i32, ptr %14, align 4
  %127 = call ptr @lappend_int(ptr noundef %125, i32 noundef %126)
  %128 = load ptr, ptr %5, align 8
  %129 = getelementptr inbounds nuw %struct.CommonTableExpr, ptr %128, i32 0, i32 12
  store ptr %127, ptr %129, align 8
  %130 = load ptr, ptr %5, align 8
  %131 = getelementptr inbounds nuw %struct.CommonTableExpr, ptr %130, i32 0, i32 13
  %132 = load ptr, ptr %131, align 8
  %133 = load i32, ptr %15, align 4
  %134 = call ptr @lappend_oid(ptr noundef %132, i32 noundef %133)
  %135 = load ptr, ptr %5, align 8
  %136 = getelementptr inbounds nuw %struct.CommonTableExpr, ptr %135, i32 0, i32 13
  store ptr %134, ptr %136, align 8
  store i32 0, ptr %11, align 4
  br label %137

137:                                              ; preds = %115, %70
  call void @llvm.lifetime.end.p0(i64 4, ptr %15) #8
  call void @llvm.lifetime.end.p0(i64 4, ptr %14) #8
  call void @llvm.lifetime.end.p0(i64 4, ptr %13) #8
  call void @llvm.lifetime.end.p0(i64 8, ptr %12) #8
  %138 = load i32, ptr %11, align 4
  switch i32 %138, label %171 [
    i32 0, label %139
    i32 4, label %140
  ]

139:                                              ; preds = %137
  br label %140

140:                                              ; preds = %139, %137
  %141 = getelementptr inbounds nuw %struct.ForEachState, ptr %10, i32 0, i32 1
  %142 = load i32, ptr %141, align 8
  %143 = add i32 %142, 1
  store i32 %143, ptr %141, align 8
  br label %37, !llvm.loop !18

144:                                              ; preds = %62
  %145 = load i32, ptr %8, align 4
  %146 = load i32, ptr %7, align 4
  %147 = icmp slt i32 %145, %146
  br i1 %147, label %148, label %170

148:                                              ; preds = %144
  br label %149

149:                                              ; preds = %148
  br i1 true, label %150, label %152

150:                                              ; preds = %149
  %151 = call zeroext i1 @errstart_cold(i32 noundef 21, ptr noundef null) #10
  br i1 %151, label %154, label %167

152:                                              ; preds = %149
  %153 = call zeroext i1 @errstart(i32 noundef 21, ptr noundef null)
  br i1 %153, label %154, label %167

154:                                              ; preds = %152, %150
  %155 = call i32 @errcode(i32 noundef 393348)
  %156 = load ptr, ptr %5, align 8
  %157 = getelementptr inbounds nuw %struct.CommonTableExpr, ptr %156, i32 0, i32 1
  %158 = load ptr, ptr %157, align 8
  %159 = load i32, ptr %8, align 4
  %160 = load i32, ptr %7, align 4
  %161 = call i32 (ptr, ...) @errmsg(ptr noundef @.str.2, ptr noundef %158, i32 noundef %159, i32 noundef %160)
  %162 = load ptr, ptr %4, align 8
  %163 = load ptr, ptr %5, align 8
  %164 = getelementptr inbounds nuw %struct.CommonTableExpr, ptr %163, i32 0, i32 7
  %165 = load i32, ptr %164, align 8
  %166 = call i32 @parser_errposition(ptr noundef %162, i32 noundef %165)
  call void @errfinish(ptr noundef @.str.1, i32 noundef 638, ptr noundef @__func__.analyzeCTETargetList)
  br label %167

167:                                              ; preds = %154, %152, %150
  unreachable

168:                                              ; No predecessors!
  br label %169

169:                                              ; preds = %168
  br label %170

170:                                              ; preds = %169, %144
  call void @llvm.lifetime.end.p0(i64 8, ptr %9) #8
  call void @llvm.lifetime.end.p0(i64 4, ptr %8) #8
  call void @llvm.lifetime.end.p0(i64 4, ptr %7) #8
  ret void

171:                                              ; preds = %137
  unreachable
}