; Function Attrs: nounwind uwtable
define dso_local void @analyzeCTETargetList(ptr noundef %0, ptr noundef captures(none) initializes((72, 104)) %1, ptr noundef readonly captures(address_is_null) %2) local_unnamed_addr #0 {
  %4 = getelementptr inbounds nuw i8, ptr %1, i64 16
  %5 = load ptr, ptr %4, align 8
  %6 = tail call ptr @copyObjectImpl(ptr noundef %5) #10
  %7 = getelementptr inbounds nuw i8, ptr %1, i64 72
  store ptr %6, ptr %7, align 8
  %8 = getelementptr inbounds nuw i8, ptr %1, i64 96
  %9 = getelementptr inbounds nuw i8, ptr %1, i64 88
  %10 = getelementptr inbounds nuw i8, ptr %1, i64 80
  tail call void @llvm.memset.p0.i64(ptr noundef nonnull align 8 dereferenceable(24) %10, i8 0, i64 24, i1 false)
  %11 = load ptr, ptr %4, align 8
  %.not.i = icmp eq ptr %11, null
  br i1 %.not.i, label %list_length.exit, label %12

12:                                               ; preds = %3
  %13 = getelementptr inbounds nuw i8, ptr %11, i64 4
  %14 = load i32, ptr %13, align 4
  br label %list_length.exit

list_length.exit:                                 ; preds = %3, %12
  %15 = phi i32 [ %14, %12 ], [ 0, %3 ]
  %16 = getelementptr inbounds nuw i8, ptr %2, i64 4
  %.not = icmp eq ptr %2, null
  br i1 %.not, label %._crit_edge, label %.lr.ph

.lr.ph:                                           ; preds = %list_length.exit
  %17 = getelementptr inbounds nuw i8, ptr %2, i64 16
  %18 = getelementptr inbounds nuw i8, ptr %1, i64 60
  %19 = load i32, ptr %16, align 4
  %20 = icmp sgt i32 %19, 0
  br i1 %20, label %.lr.ph59, label %._crit_edge

._crit_edge:                                      ; preds = %56, %.lr.ph, %list_length.exit
  %.0.lcssa = phi i32 [ 0, %list_length.exit ], [ 0, %.lr.ph ], [ %.1, %56 ]
  %21 = icmp slt i32 %.0.lcssa, %15
  br i1 %21, label %60, label %69

.lr.ph59:                                         ; preds = %.lr.ph, %56
  %.05358 = phi i32 [ %.1, %56 ], [ 0, %.lr.ph ]
  %indvars.iv57 = phi i64 [ %indvars.iv.next, %56 ], [ 0, %.lr.ph ]
  %22 = load ptr, ptr %17, align 8
  %23 = getelementptr inbounds nuw %union.ListCell, ptr %22, i64 %indvars.iv57
  %24 = load ptr, ptr %23, align 8
  %25 = getelementptr inbounds nuw i8, ptr %24, i64 42
  %26 = load i8, ptr %25, align 2, !range !4, !noundef !5
  %27 = trunc nuw i8 %26 to i1
  br i1 %27, label %56, label %28

28:                                               ; preds = %.lr.ph59
  %29 = add i32 %.05358, 1
  %30 = icmp sgt i32 %29, %15
  br i1 %30, label %31, label %38

31:                                               ; preds = %28
  %32 = getelementptr inbounds nuw i8, ptr %24, i64 24
  %33 = load ptr, ptr %32, align 8
  %34 = tail call ptr @pstrdup(ptr noundef %33) #10
  %35 = load ptr, ptr %7, align 8
  %36 = tail call ptr @makeString(ptr noundef %34) #10
  %37 = tail call ptr @lappend(ptr noundef %35, ptr noundef %36) #10
  store ptr %37, ptr %7, align 8
  br label %38

38:                                               ; preds = %31, %28
  %39 = getelementptr inbounds nuw i8, ptr %24, i64 8
  %40 = load ptr, ptr %39, align 8
  %41 = tail call i32 @exprType(ptr noundef %40) #10
  %42 = load ptr, ptr %39, align 8
  %43 = tail call i32 @exprTypmod(ptr noundef %42) #10
  %44 = load ptr, ptr %39, align 8
  %45 = tail call i32 @exprCollation(ptr noundef %44) #10
  %46 = load i8, ptr %18, align 4, !range !4, !noundef !5
  %47 = trunc nuw i8 %46 to i1
  %48 = icmp eq i32 %41, 705
  %or.cond = select i1 %47, i1 %48, i1 false
  %.not49 = icmp eq i32 %45, 0
  %.044 = select i1 %or.cond, i32 25, i32 %41
  %.043 = select i1 %or.cond, i32 -1, i32 %43
  %49 = select i1 %or.cond, i1 %.not49, i1 false
  %.042 = select i1 %49, i32 100, i32 %45
  %50 = load ptr, ptr %10, align 8
  %51 = tail call ptr @lappend_oid(ptr noundef %50, i32 noundef %.044) #10
  store ptr %51, ptr %10, align 8
  %52 = load ptr, ptr %9, align 8
  %53 = tail call ptr @lappend_int(ptr noundef %52, i32 noundef %.043) #10
  store ptr %53, ptr %9, align 8
  %54 = load ptr, ptr %8, align 8
  %55 = tail call ptr @lappend_oid(ptr noundef %54, i32 noundef %.042) #10
  store ptr %55, ptr %8, align 8
  br label %56

56:                                               ; preds = %.lr.ph59, %38
  %.1 = phi i32 [ %29, %38 ], [ %.05358, %.lr.ph59 ]
  %indvars.iv.next = add nuw nsw i64 %indvars.iv57, 1
  %57 = load i32, ptr %16, align 4
  %58 = sext i32 %57 to i64
  %59 = icmp slt i64 %indvars.iv.next, %58
  br i1 %59, label %.lr.ph59, label %._crit_edge

60:                                               ; preds = %._crit_edge
  %61 = tail call zeroext i1 @errstart_cold(i32 noundef 21, ptr noundef null) #9
  tail call void @llvm.assume(i1 %61)
  %62 = tail call i32 @errcode(i32 noundef 393348) #10
  %63 = getelementptr inbounds nuw i8, ptr %1, i64 8
  %64 = load ptr, ptr %63, align 8
  %65 = tail call i32 (ptr, ...) @errmsg(ptr noundef nonnull @.str.2, ptr noundef %64, i32 noundef %.0.lcssa, i32 noundef %15) #10
  %66 = getelementptr inbounds nuw i8, ptr %1, i64 56
  %67 = load i32, ptr %66, align 8
  %68 = tail call i32 @parser_errposition(ptr noundef %0, i32 noundef %67) #10
  tail call void @errfinish(ptr noundef nonnull @.str.1, i32 noundef 638, ptr noundef nonnull @__func__.analyzeCTETargetList) #10
  unreachable

69:                                               ; preds = %._crit_edge
  ret void
}